; Function Attrs: null_pointer_is_valid sspstrong uwtable
define internal fastcc i32 @get_uint_parameter(ptr noundef readonly captures(none) %0, i32 noundef %1) unnamed_addr #0 {
  %3 = tail call ptr @wmem_packet_scope()
  %4 = add i32 %1, 1
  %5 = sext i32 %4 to i64
  %6 = tail call noalias ptr @wmem_alloc(ptr noundef %3, i64 noundef %5) #11
  %7 = sext i32 %1 to i64
  %8 = icmp ne i32 %4, -1
  tail call void @llvm.assume(i1 %8)
  %9 = tail call ptr @__memcpy_chk(ptr noundef %6, ptr noundef %0, i64 noundef range(i64 -2147483648, 4294967296) %7, i64 noundef %5) #10, !alias.scope !193
  %10 = getelementptr i8, ptr %6, i64 %7
  store i8 0, ptr %10, align 1
  %11 = tail call i64 @g_ascii_strtoull(ptr noundef %6, ptr noundef null, i32 noundef 10)
  %12 = trunc i64 %11 to i32
  ret i32 %12
}